(lp0
(imodels.rectangle_obstacle
RectangleObstacle
p1
(dp2
S'geometry'
p3
(imodels.polygon
Polygon
p4
(dp5
S'vertexes'
p6
(lp7
(lp8
F0.3
aF0.1
aa(lp9
F0.3
aF-0.1
aa(lp10
F-0.3
aF-0.1
aa(lp11
F-0.3
aF0.1
aasS'bounding_circle'
p12
((lp13
F0.0
aF0.0
aF0.31622776601683794
tp14
sbsS'width'
p15
F0.6
sS'pose'
p16
(imodels.pose
Pose
p17
(dp18
S'y'
p19
F0.30000000000000004
sS'x'
p20
F0.09999999999999998
sS'theta'
p21
F0.0
sbsS'global_geometry'
p22
(imodels.polygon
Polygon
p23
(dp24
g6
(lp25
(lp26
F0.39999999999999997
aF0.4
aa(lp27
F0.39999999999999997
aF0.20000000000000004
aa(lp28
F-0.2
aF0.20000000000000004
aa(lp29
F-0.2
aF0.4
aasg12
((lp30
F0.09999999999999996
aF0.30000000000000004
aF0.31622776601683794
tp31
sbsS'height'
p32
F0.2
sba(imodels.rectangle_obstacle
RectangleObstacle
p33
(dp34
g3
(imodels.polygon
Polygon
p35
(dp36
g6
(lp37
(lp38
F0.3
aF0.1
aa(lp39
F0.3
aF-0.1
aa(lp40
F-0.3
aF-0.1
aa(lp41
F-0.3
aF0.1
aasg12
((lp42
F0.0
aF0.0
aF0.31622776601683794
tp43
sbsg15
F0.6
sg16
(imodels.pose
Pose
p44
(dp45
g19
F0.5
sg20
F-0.30000000000000004
sg21
F1.5708
sbsg22
(imodels.polygon
Polygon
p46
(dp47
g6
(lp48
(lp49
F-0.4000011019608564
aF0.7999996326774658
aa(lp50
F-0.20000110196220566
aF0.8000003673184864
aa(lp51
F-0.19999889803914367
aF0.20000036732253423
aa(lp52
F-0.3999988980377944
aF0.19999963268151355
aasg12
((lp53
F-0.30000000000000004
aF0.5
aF0.31622776601683794
tp54
sbsg32
F0.2
sba(imodels.rectangle_obstacle
RectangleObstacle
p55
(dp56
g3
(imodels.polygon
Polygon
p57
(dp58
g6
(lp59
(lp60
F1.5
aF0.05
aa(lp61
F1.5
aF-0.05
aa(lp62
F-1.5
aF-0.05
aa(lp63
F-1.5
aF0.05
aasg12
((lp64
F0.0
aF0.0
aF1.5008331019803633
tp65
sbsg15
I3
sg16
(imodels.pose
Pose
p66
(dp67
g19
F-1.45
sg20
F-0.10000000000000009
sg21
F0.0
sbsg22
(imodels.polygon
Polygon
p68
(dp69
g6
(lp70
(lp71
F1.4
aF-1.4
aa(lp72
F1.4
aF-1.5
aa(lp73
F-1.6
aF-1.5
aa(lp74
F-1.6
aF-1.4
aasg12
((lp75
F-0.10000000000000009
aF-1.4500000000000002
aF1.5008331019803633
tp76
sbsg32
F0.1
sba(imodels.rectangle_obstacle
RectangleObstacle
p77
(dp78
g3
(imodels.polygon
Polygon
p79
(dp80
g6
(lp81
(lp82
F1.5
aF0.05
aa(lp83
F1.5
aF-0.05
aa(lp84
F-1.5
aF-0.05
aa(lp85
F-1.5
aF0.05
aasg12
((lp86
F0.0
aF0.0
aF1.5008331019803633
tp87
sbsg15
I3
sg16
(imodels.pose
Pose
p88
(dp89
g19
F0.10000000000000009
sg20
F-1.55
sg21
F1.5708
sbsg22
(imodels.polygon
Polygon
p90
(dp91
g6
(lp92
(lp93
F-1.6000055098073178
aF1.5999998163296254
aa(lp94
F-1.5000055098079923
aF1.6000001836501359
aa(lp95
F-1.4999944901926823
aF-1.3999998163296252
aa(lp96
F-1.5999944901920078
aF-1.4000001836501357
aasg12
((lp97
F-1.55
aF0.10000000000000009
aF1.5008331019803633
tp98
sbsg32
F0.1
sba(imodels.rectangle_obstacle
RectangleObstacle
p99
(dp100
g3
(imodels.polygon
Polygon
p101
(dp102
g6
(lp103
(lp104
F1.5
aF0.05
aa(lp105
F1.5
aF-0.05
aa(lp106
F-1.5
aF-0.05
aa(lp107
F-1.5
aF0.05
aasg12
((lp108
F0.0
aF0.0
aF1.5008331019803633
tp109
sbsg15
I3
sg16
(imodels.pose
Pose
p110
(dp111
g19
F0.0
sg20
F1.45
sg21
F1.5708
sbsg22
(imodels.polygon
Polygon
p112
(dp113
g6
(lp114
(lp115
F1.3999944901926822
aF1.4999998163296253
aa(lp116
F1.4999944901920077
aF1.5000001836501358
aa(lp117
F1.5000055098073177
aF-1.4999998163296253
aa(lp118
F1.4000055098079922
aF-1.5000001836501358
aasg12
((lp119
F1.45
aF0.0
aF1.5008331019803633
tp120
sbsg32
F0.1
sba(imodels.rectangle_obstacle
RectangleObstacle
p121
(dp122
g3
(imodels.polygon
Polygon
p123
(dp124
g6
(lp125
(lp126
F1.5
aF0.05
aa(lp127
F1.5
aF-0.05
aa(lp128
F-1.5
aF-0.05
aa(lp129
F-1.5
aF0.05
aasg12
((lp130
F0.0
aF0.0
aF1.5008331019803633
tp131
sbsg15
I3
sg16
(imodels.pose
Pose
p132
(dp133
g19
F1.55
sg20
F0.0
sg21
F0.0
sbsg22
(imodels.polygon
Polygon
p134
(dp135
g6
(lp136
(lp137
F1.5
aF1.6
aa(lp138
F1.5
aF1.5
aa(lp139
F-1.5
aF1.5
aa(lp140
F-1.5
aF1.6
aasg12
((lp141
F0.0
aF1.5499999999999998
aF1.5008331019803633
tp142
sbsg32
F0.1
sba.(lp0
F0.0
aF0.6
a.