(lp0
(imodels.rectangle_obstacle
RectangleObstacle
p1
(dp2
S'geometry'
p3
(imodels.polygon
Polygon
p4
(dp5
S'vertexes'
p6
(lp7
(lp8
F0.4
aF0.1
aa(lp9
F0.4
aF-0.1
aa(lp10
F-0.4
aF-0.1
aa(lp11
F-0.4
aF0.1
aasS'bounding_circle'
p12
((lp13
F0.0
aF0.0
aF0.4123105625617661
tp14
sbsS'width'
p15
F0.8
sS'pose'
p16
(imodels.pose
Pose
p17
(dp18
S'y'
p19
F0.30000000000000004
sS'x'
p20
F0.0
sS'theta'
p21
F0.0
sbsS'global_geometry'
p22
(imodels.polygon
Polygon
p23
(dp24
g6
(lp25
(lp26
F0.4
aF0.4
aa(lp27
F0.4
aF0.20000000000000004
aa(lp28
F-0.4
aF0.20000000000000004
aa(lp29
F-0.4
aF0.4
aasg12
((lp30
F0.0
aF0.30000000000000004
aF0.4123105625617661
tp31
sbsS'height'
p32
F0.2
sba(imodels.rectangle_obstacle
RectangleObstacle
p33
(dp34
g3
(imodels.polygon
Polygon
p35
(dp36
g6
(lp37
(lp38
F0.3
aF0.1
aa(lp39
F0.3
aF-0.1
aa(lp40
F-0.3
aF-0.1
aa(lp41
F-0.3
aF0.1
aasg12
((lp42
F0.0
aF0.0
aF0.31622776601683794
tp43
sbsg15
F0.6
sg16
(imodels.pose
Pose
p44
(dp45
g19
F0.09999999999999998
sg20
F-0.5
sg21
F1.5708
sbsg22
(imodels.polygon
Polygon
p46
(dp47
g6
(lp48
(lp49
F-0.6000011019608564
aF0.39999963267746574
aa(lp50
F-0.4000011019622056
aF0.4000003673184864
aa(lp51
F-0.3999988980391436
aF-0.1999996326774658
aa(lp52
F-0.5999988980377944
aF-0.20000036731848647
aasg12
((lp53
F-0.5
aF0.09999999999999998
aF0.31622776601683794
tp54
sbsg32
F0.2
sba(imodels.rectangle_obstacle
RectangleObstacle
p55
(dp56
g3
(imodels.polygon
Polygon
p57
(dp58
g6
(lp59
(lp60
F0.5
aF0.1
aa(lp61
F0.5
aF-0.1
aa(lp62
F-0.5
aF-0.1
aa(lp63
F-0.5
aF0.1
aasg12
((lp64
F0.0
aF0.0
aF0.5099019513592785
tp65
sbsg15
F1.0
sg16
(imodels.pose
Pose
p66
(dp67
g19
F-0.09999999999999998
sg20
F0.5
sg21
F-1.5708
sbsg22
(imodels.polygon
Polygon
p68
(dp69
g6
(lp70
(lp71
F0.5999981633967737
aF-0.6000003673171371
aa(lp72
F0.39999816339812294
aF-0.5999996326761166
aa(lp73
F0.4000018366032263
aF0.4000003673171372
aa(lp74
F0.600001836601877
aF0.39999963267611655
aasg12
((lp75
F0.5
aF-0.09999999999999996
aF0.5099019513592785
tp76
sbsg32
F0.2
sba(imodels.rectangle_obstacle
RectangleObstacle
p77
(dp78
g3
(imodels.polygon
Polygon
p79
(dp80
g6
(lp81
(lp82
F0.2
aF0.1
aa(lp83
F0.2
aF-0.1
aa(lp84
F-0.2
aF-0.1
aa(lp85
F-0.2
aF0.1
aasg12
((lp86
F0.0
aF0.0
aF0.223606797749979
tp87
sbsg15
F0.4
sg16
(imodels.pose
Pose
p88
(dp89
g19
F-0.5
sg20
F0.2
sg21
F0.0
sbsg22
(imodels.polygon
Polygon
p90
(dp91
g6
(lp92
(lp93
F0.4
aF-0.4
aa(lp94
F0.4
aF-0.6
aa(lp95
F0.0
aF-0.6
aa(lp96
F0.0
aF-0.4
aasg12
((lp97
F0.2
aF-0.5
aF0.22360679774997896
tp98
sbsg32
F0.2
sba(imodels.rectangle_obstacle
RectangleObstacle
p99
(dp100
g3
(imodels.polygon
Polygon
p101
(dp102
g6
(lp103
(lp104
F0.1
aF0.1
aa(lp105
F0.1
aF-0.1
aa(lp106
F-0.1
aF-0.1
aa(lp107
F-0.1
aF0.1
aasg12
((lp108
F0.0
aF0.0
aF0.14142135623730953
tp109
sbsg15
F0.2
sg16
(imodels.pose
Pose
p110
(dp111
g19
F0.7999999999999999
sg20
F0.7999999999999999
sg21
F0.0
sbsg22
(imodels.polygon
Polygon
p112
(dp113
g6
(lp114
(lp115
F0.8999999999999999
aF0.8999999999999999
aa(lp116
F0.8999999999999999
aF0.7
aa(lp117
F0.7
aF0.7
aa(lp118
F0.7
aF0.8999999999999999
aasg12
((lp119
F0.8
aF0.7999999999999999
aF0.14142135623730953
tp120
sbsg32
F0.2
sba(imodels.rectangle_obstacle
RectangleObstacle
p121
(dp122
g3
(imodels.polygon
Polygon
p123
(dp124
g6
(lp125
(lp126
F0.2
aF0.1
aa(lp127
F0.2
aF-0.1
aa(lp128
F-0.2
aF-0.1
aa(lp129
F-0.2
aF0.1
aasg12
((lp130
F0.0
aF0.0
aF0.223606797749979
tp131
sbsg15
F0.4
sg16
(imodels.pose
Pose
p132
(dp133
g19
F0.8999999999999999
sg20
F0.6
sg21
F1.5708
sbsg22
(imodels.polygon
Polygon
p134
(dp135
g6
(lp136
(lp137
F0.49999926535965394
aF1.0999996326781403
aa(lp138
F0.6999992653583047
aF1.100000367319161
aa(lp139
F0.7000007346403461
aF0.7000003673218596
aa(lp140
F0.5000007346416953
aF0.6999996326808389
aasg12
((lp141
F0.6
aF0.8999999999999998
aF0.22360679774997905
tp142
sbsg32
F0.2
sba(imodels.rectangle_obstacle
RectangleObstacle
p143
(dp144
g3
(imodels.polygon
Polygon
p145
(dp146
g6
(lp147
(lp148
F1.5
aF0.05
aa(lp149
F1.5
aF-0.05
aa(lp150
F-1.5
aF-0.05
aa(lp151
F-1.5
aF0.05
aasg12
((lp152
F0.0
aF0.0
aF1.5008331019803633
tp153
sbsg15
I3
sg16
(imodels.pose
Pose
p154
(dp155
g19
F-1.45
sg20
F-0.10000000000000009
sg21
F0.0
sbsg22
(imodels.polygon
Polygon
p156
(dp157
g6
(lp158
(lp159
F1.4
aF-1.4
aa(lp160
F1.4
aF-1.5
aa(lp161
F-1.6
aF-1.5
aa(lp162
F-1.6
aF-1.4
aasg12
((lp163
F-0.10000000000000009
aF-1.4500000000000002
aF1.5008331019803633
tp164
sbsg32
F0.1
sba(imodels.rectangle_obstacle
RectangleObstacle
p165
(dp166
g3
(imodels.polygon
Polygon
p167
(dp168
g6
(lp169
(lp170
F1.5
aF0.05
aa(lp171
F1.5
aF-0.05
aa(lp172
F-1.5
aF-0.05
aa(lp173
F-1.5
aF0.05
aasg12
((lp174
F0.0
aF0.0
aF1.5008331019803633
tp175
sbsg15
I3
sg16
(imodels.pose
Pose
p176
(dp177
g19
F0.10000000000000009
sg20
F-1.55
sg21
F1.5708
sbsg22
(imodels.polygon
Polygon
p178
(dp179
g6
(lp180
(lp181
F-1.6000055098073178
aF1.5999998163296254
aa(lp182
F-1.5000055098079923
aF1.6000001836501359
aa(lp183
F-1.4999944901926823
aF-1.3999998163296252
aa(lp184
F-1.5999944901920078
aF-1.4000001836501357
aasg12
((lp185
F-1.55
aF0.10000000000000009
aF1.5008331019803633
tp186
sbsg32
F0.1
sba(imodels.rectangle_obstacle
RectangleObstacle
p187
(dp188
g3
(imodels.polygon
Polygon
p189
(dp190
g6
(lp191
(lp192
F1.5
aF0.05
aa(lp193
F1.5
aF-0.05
aa(lp194
F-1.5
aF-0.05
aa(lp195
F-1.5
aF0.05
aasg12
((lp196
F0.0
aF0.0
aF1.5008331019803633
tp197
sbsg15
I3
sg16
(imodels.pose
Pose
p198
(dp199
g19
F0.0
sg20
F1.45
sg21
F1.5708
sbsg22
(imodels.polygon
Polygon
p200
(dp201
g6
(lp202
(lp203
F1.3999944901926822
aF1.4999998163296253
aa(lp204
F1.4999944901920077
aF1.5000001836501358
aa(lp205
F1.5000055098073177
aF-1.4999998163296253
aa(lp206
F1.4000055098079922
aF-1.5000001836501358
aasg12
((lp207
F1.45
aF0.0
aF1.5008331019803633
tp208
sbsg32
F0.1
sba(imodels.rectangle_obstacle
RectangleObstacle
p209
(dp210
g3
(imodels.polygon
Polygon
p211
(dp212
g6
(lp213
(lp214
F1.5
aF0.05
aa(lp215
F1.5
aF-0.05
aa(lp216
F-1.5
aF-0.05
aa(lp217
F-1.5
aF0.05
aasg12
((lp218
F0.0
aF0.0
aF1.5008331019803633
tp219
sbsg15
I3
sg16
(imodels.pose
Pose
p220
(dp221
g19
F1.55
sg20
F0.0
sg21
F0.0
sbsg22
(imodels.polygon
Polygon
p222
(dp223
g6
(lp224
(lp225
F1.5
aF1.6
aa(lp226
F1.5
aF1.5
aa(lp227
F-1.5
aF1.5
aa(lp228
F-1.5
aF1.6
aasg12
((lp229
F0.0
aF1.5499999999999998
aF1.5008331019803633
tp230
sbsg32
F0.1
sba.(lp0
F0.9
aF1.1
a.