(lp0
(imodels.rectangle_obstacle
RectangleObstacle
p1
(dp2
S'geometry'
p3
(imodels.polygon
Polygon
p4
(dp5
S'vertexes'
p6
(lp7
(lp8
F2.1
aF0.05
aa(lp9
F2.1
aF-0.05
aa(lp10
F-2.1
aF-0.05
aa(lp11
F-2.1
aF0.05
aasS'bounding_circle'
p12
((lp13
F0.0
aF0.0
aF2.1005951537600005
tp14
sbsS'width'
p15
F4.2
sS'pose'
p16
(imodels.pose
Pose
p17
(dp18
S'y'
p19
F-2.0500000000000003
sS'x'
p20
F0.0
sS'theta'
p21
F0.0
sbsS'global_geometry'
p22
(imodels.polygon
Polygon
p23
(dp24
g6
(lp25
(lp26
F2.1
aF-2.0000000000000004
aa(lp27
F2.1
aF-2.1
aa(lp28
F-2.1
aF-2.1
aa(lp29
F-2.1
aF-2.0000000000000004
aasg12
((lp30
F0.0
aF-2.0500000000000003
aF2.1005951537600005
tp31
sbsS'height'
p32
F0.1
sba(imodels.rectangle_obstacle
RectangleObstacle
p33
(dp34
g3
(imodels.polygon
Polygon
p35
(dp36
g6
(lp37
(lp38
F2.1
aF0.05
aa(lp39
F2.1
aF-0.05
aa(lp40
F-2.1
aF-0.05
aa(lp41
F-2.1
aF0.05
aasg12
((lp42
F0.0
aF0.0
aF2.1005951537600005
tp43
sbsg15
F4.2
sg16
(imodels.pose
Pose
p44
(dp45
g19
F2.05
sg20
F0.0
sg21
F0.0
sbsg22
(imodels.polygon
Polygon
p46
(dp47
g6
(lp48
(lp49
F2.1
aF2.0999999999999996
aa(lp50
F2.1
aF1.9999999999999998
aa(lp51
F-2.1
aF1.9999999999999998
aa(lp52
F-2.1
aF2.0999999999999996
aasg12
((lp53
F0.0
aF2.05
aF2.1005951537600005
tp54
sbsg32
F0.1
sba(imodels.rectangle_obstacle
RectangleObstacle
p55
(dp56
g3
(imodels.polygon
Polygon
p57
(dp58
g6
(lp59
(lp60
F0.05
aF2.0
aa(lp61
F0.05
aF-2.0
aa(lp62
F-0.05
aF-2.0
aa(lp63
F-0.05
aF2.0
aasg12
((lp64
F0.0
aF0.0
aF2.000624902374256
tp65
sbsg15
F0.1
sg16
(imodels.pose
Pose
p66
(dp67
g19
F0.0
sg20
F-2.0500000000000003
sg21
F0.0
sbsg22
(imodels.polygon
Polygon
p68
(dp69
g6
(lp70
(lp71
F-2.0000000000000004
aF2.0
aa(lp72
F-2.0000000000000004
aF-2.0
aa(lp73
F-2.1
aF-2.0
aa(lp74
F-2.1
aF2.0
aasg12
((lp75
F-2.0500000000000003
aF0.0
aF2.000624902374256
tp76
sbsg32
I4
sba(imodels.rectangle_obstacle
RectangleObstacle
p77
(dp78
g3
(imodels.polygon
Polygon
p79
(dp80
g6
(lp81
(lp82
F0.05
aF2.0
aa(lp83
F0.05
aF-2.0
aa(lp84
F-0.05
aF-2.0
aa(lp85
F-0.05
aF2.0
aasg12
((lp86
F0.0
aF0.0
aF2.000624902374256
tp87
sbsg15
F0.1
sg16
(imodels.pose
Pose
p88
(dp89
g19
F0.0
sg20
F2.05
sg21
F0.0
sbsg22
(imodels.polygon
Polygon
p90
(dp91
g6
(lp92
(lp93
F2.0999999999999996
aF2.0
aa(lp94
F2.0999999999999996
aF-2.0
aa(lp95
F1.9999999999999998
aF-2.0
aa(lp96
F1.9999999999999998
aF2.0
aasg12
((lp97
F2.05
aF0.0
aF2.000624902374256
tp98
sbsg32
I4
sba(imodels.rectangle_obstacle
RectangleObstacle
p99
(dp100
g3
(imodels.polygon
Polygon
p101
(dp102
g6
(lp103
(lp104
F0.5
aF0.5
aa(lp105
F0.5
aF-0.5
aa(lp106
F-0.5
aF-0.5
aa(lp107
F-0.5
aF0.5
aasg12
((lp108
F0.0
aF0.0
aF0.7071067811865476
tp109
sbsg15
I1
sg16
(imodels.pose
Pose
p110
(dp111
g19
F0.0
sg20
F-1.5
sg21
F0.0
sbsg22
(imodels.polygon
Polygon
p112
(dp113
g6
(lp114
(lp115
F-1.0
aF0.5
aa(lp116
F-1.0
aF-0.5
aa(lp117
F-2.0
aF-0.5
aa(lp118
F-2.0
aF0.5
aasg12
((lp119
F-1.5
aF0.0
aF0.7071067811865476
tp120
sbsg32
I1
sba(imodels.rectangle_obstacle
RectangleObstacle
p121
(dp122
g3
(imodels.polygon
Polygon
p123
(dp124
g6
(lp125
(lp126
F0.5
aF0.5
aa(lp127
F0.5
aF-0.5
aa(lp128
F-0.5
aF-0.5
aa(lp129
F-0.5
aF0.5
aasg12
((lp130
F0.0
aF0.0
aF0.7071067811865476
tp131
sbsg15
I1
sg16
(imodels.pose
Pose
p132
(dp133
g19
F0.0
sg20
F1.5
sg21
F0.0
sbsg22
(imodels.polygon
Polygon
p134
(dp135
g6
(lp136
(lp137
F2.0
aF0.5
aa(lp138
F2.0
aF-0.5
aa(lp139
F1.0
aF-0.5
aa(lp140
F1.0
aF0.5
aasg12
((lp141
F1.5
aF0.0
aF0.7071067811865476
tp142
sbsg32
I1
sba(imodels.rectangle_obstacle
RectangleObstacle
p143
(dp144
g3
(imodels.polygon
Polygon
p145
(dp146
g6
(lp147
(lp148
F0.5
aF0.25
aa(lp149
F0.5
aF-0.25
aa(lp150
F-0.5
aF-0.25
aa(lp151
F-0.5
aF0.25
aasg12
((lp152
F0.0
aF0.0
aF0.5590169943749475
tp153
sbsg15
I1
sg16
(imodels.pose
Pose
p154
(dp155
g19
F1.75
sg20
F0.0
sg21
F0.0
sbsg22
(imodels.polygon
Polygon
p156
(dp157
g6
(lp158
(lp159
F0.5
aF2.0
aa(lp160
F0.5
aF1.5
aa(lp161
F-0.5
aF1.5
aa(lp162
F-0.5
aF2.0
aasg12
((lp163
F0.0
aF1.75
aF0.5590169943749475
tp164
sbsg32
F0.5
sba(imodels.rectangle_obstacle
RectangleObstacle
p165
(dp166
g3
(imodels.polygon
Polygon
p167
(dp168
g6
(lp169
(lp170
F0.5
aF0.25
aa(lp171
F0.5
aF-0.25
aa(lp172
F-0.5
aF-0.25
aa(lp173
F-0.5
aF0.25
aasg12
((lp174
F0.0
aF0.0
aF0.5590169943749475
tp175
sbsg15
I1
sg16
(imodels.pose
Pose
p176
(dp177
g19
F-1.75
sg20
F0.0
sg21
F0.0
sbsg22
(imodels.polygon
Polygon
p178
(dp179
g6
(lp180
(lp181
F0.5
aF-1.5
aa(lp182
F0.5
aF-2.0
aa(lp183
F-0.5
aF-2.0
aa(lp184
F-0.5
aF-1.5
aasg12
((lp185
F0.0
aF-1.75
aF0.5590169943749475
tp186
sbsg32
F0.5
sba(imodels.rectangle_obstacle
RectangleObstacle
p187
(dp188
g3
(imodels.polygon
Polygon
p189
(dp190
g6
(lp191
(lp192
F0.25
aF0.05
aa(lp193
F0.25
aF-0.05
aa(lp194
F-0.25
aF-0.05
aa(lp195
F-0.25
aF0.05
aasg12
((lp196
F0.0
aF0.0
aF0.25495097567963926
tp197
sbsg15
F0.5
sg16
(imodels.pose
Pose
p198
(dp199
g19
F1.5
sg20
F-1.25
sg21
F0.0
sbsg22
(imodels.polygon
Polygon
p200
(dp201
g6
(lp202
(lp203
F-1.0
aF1.55
aa(lp204
F-1.0
aF1.45
aa(lp205
F-1.5
aF1.45
aa(lp206
F-1.5
aF1.55
aasg12
((lp207
F-1.25
aF1.5
aF0.25495097567963926
tp208
sbsg32
F0.1
sba(imodels.rectangle_obstacle
RectangleObstacle
p209
(dp210
g3
(imodels.polygon
Polygon
p211
(dp212
g6
(lp213
(lp214
F0.25
aF0.05
aa(lp215
F0.25
aF-0.05
aa(lp216
F-0.25
aF-0.05
aa(lp217
F-0.25
aF0.05
aasg12
((lp218
F0.0
aF0.0
aF0.25495097567963926
tp219
sbsg15
F0.5
sg16
(imodels.pose
Pose
p220
(dp221
g19
F1.5
sg20
F1.25
sg21
F0.0
sbsg22
(imodels.polygon
Polygon
p222
(dp223
g6
(lp224
(lp225
F1.5
aF1.55
aa(lp226
F1.5
aF1.45
aa(lp227
F1.0
aF1.45
aa(lp228
F1.0
aF1.55
aasg12
((lp229
F1.25
aF1.5
aF0.25495097567963926
tp230
sbsg32
F0.1
sba(imodels.rectangle_obstacle
RectangleObstacle
p231
(dp232
g3
(imodels.polygon
Polygon
p233
(dp234
g6
(lp235
(lp236
F0.25
aF0.05
aa(lp237
F0.25
aF-0.05
aa(lp238
F-0.25
aF-0.05
aa(lp239
F-0.25
aF0.05
aasg12
((lp240
F0.0
aF0.0
aF0.25495097567963926
tp241
sbsg15
F0.5
sg16
(imodels.pose
Pose
p242
(dp243
g19
F-1.0
sg20
F-1.25
sg21
F0.0
sbsg22
(imodels.polygon
Polygon
p244
(dp245
g6
(lp246
(lp247
F-1.0
aF-0.95
aa(lp248
F-1.0
aF-1.05
aa(lp249
F-1.5
aF-1.05
aa(lp250
F-1.5
aF-0.95
aasg12
((lp251
F-1.25
aF-1.0
aF0.25495097567963926
tp252
sbsg32
F0.1
sba(imodels.rectangle_obstacle
RectangleObstacle
p253
(dp254
g3
(imodels.polygon
Polygon
p255
(dp256
g6
(lp257
(lp258
F0.25
aF0.05
aa(lp259
F0.25
aF-0.05
aa(lp260
F-0.25
aF-0.05
aa(lp261
F-0.25
aF0.05
aasg12
((lp262
F0.0
aF0.0
aF0.25495097567963926
tp263
sbsg15
F0.5
sg16
(imodels.pose
Pose
p264
(dp265
g19
F-1.0
sg20
F1.25
sg21
F0.0
sbsg22
(imodels.polygon
Polygon
p266
(dp267
g6
(lp268
(lp269
F1.5
aF-0.95
aa(lp270
F1.5
aF-1.05
aa(lp271
F1.0
aF-1.05
aa(lp272
F1.0
aF-0.95
aasg12
((lp273
F1.25
aF-1.0
aF0.25495097567963926
tp274
sbsg32
F0.1
sba(imodels.rectangle_obstacle
RectangleObstacle
p275
(dp276
g3
(imodels.polygon
Polygon
p277
(dp278
g6
(lp279
(lp280
F0.25
aF0.05
aa(lp281
F0.25
aF-0.05
aa(lp282
F-0.25
aF-0.05
aa(lp283
F-0.25
aF0.05
aasg12
((lp284
F0.0
aF0.0
aF0.25495097567963926
tp285
sbsg15
F0.5
sg16
(imodels.pose
Pose
p286
(dp287
g19
F-1.5
sg20
F-1.75
sg21
F0.0
sbsg22
(imodels.polygon
Polygon
p288
(dp289
g6
(lp290
(lp291
F-1.5
aF-1.45
aa(lp292
F-1.5
aF-1.55
aa(lp293
F-2.0
aF-1.55
aa(lp294
F-2.0
aF-1.45
aasg12
((lp295
F-1.75
aF-1.5
aF0.25495097567963926
tp296
sbsg32
F0.1
sba(imodels.rectangle_obstacle
RectangleObstacle
p297
(dp298
g3
(imodels.polygon
Polygon
p299
(dp300
g6
(lp301
(lp302
F0.25
aF0.05
aa(lp303
F0.25
aF-0.05
aa(lp304
F-0.25
aF-0.05
aa(lp305
F-0.25
aF0.05
aasg12
((lp306
F0.0
aF0.0
aF0.25495097567963926
tp307
sbsg15
F0.5
sg16
(imodels.pose
Pose
p308
(dp309
g19
F-1.5
sg20
F1.75
sg21
F0.0
sbsg22
(imodels.polygon
Polygon
p310
(dp311
g6
(lp312
(lp313
F2.0
aF-1.45
aa(lp314
F2.0
aF-1.55
aa(lp315
F1.5
aF-1.55
aa(lp316
F1.5
aF-1.45
aasg12
((lp317
F1.75
aF-1.5
aF0.25495097567963926
tp318
sbsg32
F0.1
sba(imodels.rectangle_obstacle
RectangleObstacle
p319
(dp320
g3
(imodels.polygon
Polygon
p321
(dp322
g6
(lp323
(lp324
F0.5
aF0.05
aa(lp325
F0.5
aF-0.05
aa(lp326
F-0.5
aF-0.05
aa(lp327
F-0.5
aF0.05
aasg12
((lp328
F0.0
aF0.0
aF0.5024937810560445
tp329
sbsg15
I1
sg16
(imodels.pose
Pose
p330
(dp331
g19
F-1.0
sg20
F0.0
sg21
F0.0
sbsg22
(imodels.polygon
Polygon
p332
(dp333
g6
(lp334
(lp335
F0.5
aF-0.95
aa(lp336
F0.5
aF-1.05
aa(lp337
F-0.5
aF-1.05
aa(lp338
F-0.5
aF-0.95
aasg12
((lp339
F0.0
aF-1.0
aF0.5024937810560445
tp340
sbsg32
F0.1
sba(imodels.rectangle_obstacle
RectangleObstacle
p341
(dp342
g3
(imodels.polygon
Polygon
p343
(dp344
g6
(lp345
(lp346
F0.125
aF0.05
aa(lp347
F0.125
aF-0.05
aa(lp348
F-0.125
aF-0.05
aa(lp349
F-0.125
aF0.05
aasg12
((lp350
F0.0
aF0.0
aF0.13462912017836262
tp351
sbsg15
F0.25
sg16
(imodels.pose
Pose
p352
(dp353
g19
F0.5
sg20
F-0.375
sg21
F0.0
sbsg22
(imodels.polygon
Polygon
p354
(dp355
g6
(lp356
(lp357
F-0.25
aF0.55
aa(lp358
F-0.25
aF0.45
aa(lp359
F-0.5
aF0.45
aa(lp360
F-0.5
aF0.55
aasg12
((lp361
F-0.375
aF0.5
aF0.13462912017836262
tp362
sbsg32
F0.1
sba(imodels.rectangle_obstacle
RectangleObstacle
p363
(dp364
g3
(imodels.polygon
Polygon
p365
(dp366
g6
(lp367
(lp368
F0.125
aF0.05
aa(lp369
F0.125
aF-0.05
aa(lp370
F-0.125
aF-0.05
aa(lp371
F-0.125
aF0.05
aasg12
((lp372
F0.0
aF0.0
aF0.13462912017836262
tp373
sbsg15
F0.25
sg16
(imodels.pose
Pose
p374
(dp375
g19
F0.5
sg20
F0.375
sg21
F0.0
sbsg22
(imodels.polygon
Polygon
p376
(dp377
g6
(lp378
(lp379
F0.5
aF0.55
aa(lp380
F0.5
aF0.45
aa(lp381
F0.25
aF0.45
aa(lp382
F0.25
aF0.55
aasg12
((lp383
F0.375
aF0.5
aF0.13462912017836262
tp384
sbsg32
F0.1
sba(imodels.rectangle_obstacle
RectangleObstacle
p385
(dp386
g3
(imodels.polygon
Polygon
p387
(dp388
g6
(lp389
(lp390
F0.05
aF0.25
aa(lp391
F0.05
aF-0.25
aa(lp392
F-0.05
aF-0.25
aa(lp393
F-0.05
aF0.25
aasg12
((lp394
F0.0
aF0.0
aF0.25495097567963926
tp395
sbsg15
F0.1
sg16
(imodels.pose
Pose
p396
(dp397
g19
F-1.3
sg20
F-1.05
sg21
F0.0
sbsg22
(imodels.polygon
Polygon
p398
(dp399
g6
(lp400
(lp401
F-1.0
aF-1.05
aa(lp402
F-1.0
aF-1.55
aa(lp403
F-1.1
aF-1.55
aa(lp404
F-1.1
aF-1.05
aasg12
((lp405
F-1.05
aF-1.3
aF0.25495097567963926
tp406
sbsg32
F0.5
sba(imodels.rectangle_obstacle
RectangleObstacle
p407
(dp408
g3
(imodels.polygon
Polygon
p409
(dp410
g6
(lp411
(lp412
F0.05
aF0.25
aa(lp413
F0.05
aF-0.25
aa(lp414
F-0.05
aF-0.25
aa(lp415
F-0.05
aF0.25
aasg12
((lp416
F0.0
aF0.0
aF0.25495097567963926
tp417
sbsg15
F0.1
sg16
(imodels.pose
Pose
p418
(dp419
g19
F-1.3
sg20
F1.05
sg21
F0.0
sbsg22
(imodels.polygon
Polygon
p420
(dp421
g6
(lp422
(lp423
F1.1
aF-1.05
aa(lp424
F1.1
aF-1.55
aa(lp425
F1.0
aF-1.55
aa(lp426
F1.0
aF-1.05
aasg12
((lp427
F1.05
aF-1.3
aF0.25495097567963926
tp428
sbsg32
F0.5
sba(imodels.rectangle_obstacle
RectangleObstacle
p429
(dp430
g3
(imodels.polygon
Polygon
p431
(dp432
g6
(lp433
(lp434
F0.05
aF0.25
aa(lp435
F0.05
aF-0.25
aa(lp436
F-0.05
aF-0.25
aa(lp437
F-0.05
aF0.25
aasg12
((lp438
F0.0
aF0.0
aF0.25495097567963926
tp439
sbsg15
F0.1
sg16
(imodels.pose
Pose
p440
(dp441
g19
F-0.25
sg20
F-0.45
sg21
F0.0
sbsg22
(imodels.polygon
Polygon
p442
(dp443
g6
(lp444
(lp445
F-0.4
aF0.0
aa(lp446
F-0.4
aF-0.5
aa(lp447
F-0.5
aF-0.5
aa(lp448
F-0.5
aF0.0
aasg12
((lp449
F-0.45
aF-0.25
aF0.25495097567963926
tp450
sbsg32
F0.5
sba(imodels.rectangle_obstacle
RectangleObstacle
p451
(dp452
g3
(imodels.polygon
Polygon
p453
(dp454
g6
(lp455
(lp456
F0.05
aF0.25
aa(lp457
F0.05
aF-0.25
aa(lp458
F-0.05
aF-0.25
aa(lp459
F-0.05
aF0.25
aasg12
((lp460
F0.0
aF0.0
aF0.25495097567963926
tp461
sbsg15
F0.1
sg16
(imodels.pose
Pose
p462
(dp463
g19
F-0.25
sg20
F0.45
sg21
F0.0
sbsg22
(imodels.polygon
Polygon
p464
(dp465
g6
(lp466
(lp467
F0.5
aF0.0
aa(lp468
F0.5
aF-0.5
aa(lp469
F0.4
aF-0.5
aa(lp470
F0.4
aF0.0
aasg12
((lp471
F0.44999999999999996
aF-0.25
aF0.25495097567963926
tp472
sbsg32
F0.5
sba(imodels.rectangle_obstacle
RectangleObstacle
p473
(dp474
g3
(imodels.polygon
Polygon
p475
(dp476
g6
(lp477
(lp478
F0.05
aF0.25
aa(lp479
F0.05
aF-0.25
aa(lp480
F-0.05
aF-0.25
aa(lp481
F-0.05
aF0.25
aasg12
((lp482
F0.0
aF0.0
aF0.25495097567963926
tp483
sbsg15
F0.1
sg16
(imodels.pose
Pose
p484
(dp485
g19
F0.8
sg20
F-0.45
sg21
F0.0
sbsg22
(imodels.polygon
Polygon
p486
(dp487
g6
(lp488
(lp489
F-0.4
aF1.05
aa(lp490
F-0.4
aF0.55
aa(lp491
F-0.5
aF0.55
aa(lp492
F-0.5
aF1.05
aasg12
((lp493
F-0.45
aF0.8
aF0.25495097567963926
tp494
sbsg32
F0.5
sba(imodels.rectangle_obstacle
RectangleObstacle
p495
(dp496
g3
(imodels.polygon
Polygon
p497
(dp498
g6
(lp499
(lp500
F0.05
aF0.25
aa(lp501
F0.05
aF-0.25
aa(lp502
F-0.05
aF-0.25
aa(lp503
F-0.05
aF0.25
aasg12
((lp504
F0.0
aF0.0
aF0.25495097567963926
tp505
sbsg15
F0.1
sg16
(imodels.pose
Pose
p506
(dp507
g19
F0.8
sg20
F0.45
sg21
F0.0
sbsg22
(imodels.polygon
Polygon
p508
(dp509
g6
(lp510
(lp511
F0.5
aF1.05
aa(lp512
F0.5
aF0.55
aa(lp513
F0.4
aF0.55
aa(lp514
F0.4
aF1.05
aasg12
((lp515
F0.44999999999999996
aF0.8
aF0.25495097567963926
tp516
sbsg32
F0.5
sba(imodels.rectangle_obstacle
RectangleObstacle
p517
(dp518
g3
(imodels.polygon
Polygon
p519
(dp520
g6
(lp521
(lp522
F0.05
aF0.25
aa(lp523
F0.05
aF-0.25
aa(lp524
F-0.05
aF-0.25
aa(lp525
F-0.05
aF0.25
aasg12
((lp526
F0.0
aF0.0
aF0.25495097567963926
tp527
sbsg15
F0.1
sg16
(imodels.pose
Pose
p528
(dp529
g19
F1.2
sg20
F-1.45
sg21
F0.0
sbsg22
(imodels.polygon
Polygon
p530
(dp531
g6
(lp532
(lp533
F-1.4
aF1.45
aa(lp534
F-1.4
aF0.95
aa(lp535
F-1.5
aF0.95
aa(lp536
F-1.5
aF1.45
aasg12
((lp537
F-1.45
aF1.2
aF0.25495097567963926
tp538
sbsg32
F0.5
sba(imodels.rectangle_obstacle
RectangleObstacle
p539
(dp540
g3
(imodels.polygon
Polygon
p541
(dp542
g6
(lp543
(lp544
F0.05
aF0.25
aa(lp545
F0.05
aF-0.25
aa(lp546
F-0.05
aF-0.25
aa(lp547
F-0.05
aF0.25
aasg12
((lp548
F0.0
aF0.0
aF0.25495097567963926
tp549
sbsg15
F0.1
sg16
(imodels.pose
Pose
p550
(dp551
g19
F1.2
sg20
F1.45
sg21
F0.0
sbsg22
(imodels.polygon
Polygon
p552
(dp553
g6
(lp554
(lp555
F1.5
aF1.45
aa(lp556
F1.5
aF0.95
aa(lp557
F1.4
aF0.95
aa(lp558
F1.4
aF1.45
aasg12
((lp559
F1.4500000000000002
aF1.2
aF0.2549509756796393
tp560
sbsg32
F0.5
sba.(lp0
F-1.775
aF-1.775
a.